target datalayout = "e-m:e-p270:32:32-p271:32:32-p272:64:64-i64:64-i128:128-f80:128-n8:16:32:64-S128"
target triple = "x86_64-pc-linux-gnu"

; Function Attrs: nounwind uwtable
define internal void @SDL_FillSurfaceRect4(ptr noundef %0, i32 noundef %1, i32 noundef %2, i32 noundef %3, i32 noundef %4) #0 {
  %6 = alloca ptr, align 8
  %7 = alloca i32, align 4
  %8 = alloca i32, align 4
  %9 = alloca i32, align 4
  %10 = alloca i32, align 4
  store ptr %0, ptr %6, align 8
  store i32 %1, ptr %7, align 4
  store i32 %2, ptr %8, align 4
  store i32 %3, ptr %9, align 4
  store i32 %4, ptr %10, align 4
  br label %11

11:                                               ; preds = %15, %5
  %12 = load i32, ptr %10, align 4
  %13 = add nsw i32 %12, -1
  store i32 %13, ptr %10, align 4
  %14 = icmp ne i32 %12, 0
  br i1 %14, label %15, label %25

15:                                               ; preds = %11
  %16 = load ptr, ptr %6, align 8
  %17 = load i32, ptr %8, align 4
  %18 = load i32, ptr %9, align 4
  %19 = sext i32 %18 to i64
  %20 = call ptr @SDL_memset4_REAL(ptr noundef %16, i32 noundef %17, i64 noundef %19)
  %21 = load i32, ptr %7, align 4
  %22 = load ptr, ptr %6, align 8
  %23 = sext i32 %21 to i64
  %24 = getelementptr inbounds i8, ptr %22, i64 %23
  store ptr %24, ptr %6, align 8
  br label %11, !llvm.loop !9

25:                                               ; preds = %11
  ret void
}