; Function Attrs: nounwind uwtable
define internal void @SDL_FillSurfaceRect4(ptr noundef %0, i32 noundef %1, i32 noundef %2, i32 noundef %3, i32 noundef %4) unnamed_addr #0 {
  %.not6 = icmp eq i32 %4, 0
  br i1 %.not6, label %._crit_edge, label %.lr.ph

.lr.ph:                                           ; preds = %5
  %6 = sext i32 %3 to i64
  %7 = sext i32 %1 to i64
  br label %8

8:                                                ; preds = %.lr.ph, %8
  %.08 = phi i32 [ %4, %.lr.ph ], [ %9, %8 ]
  %.057 = phi ptr [ %0, %.lr.ph ], [ %11, %8 ]
  %9 = add nsw i32 %.08, -1
  %10 = tail call ptr @SDL_memset4_REAL(ptr noundef %.057, i32 noundef %2, i64 noundef %6) #5
  %11 = getelementptr inbounds i8, ptr %.057, i64 %7
  %.not = icmp eq i32 %9, 0
  br i1 %.not, label %._crit_edge, label %8, !llvm.loop !10

._crit_edge:                                      ; preds = %8, %5
  ret void
}